; Function Attrs: mustprogress nounwind uwtable
define hidden void @_ZN17ShenandoahFreeSet21log_status_under_lockEv(ptr nocapture noundef nonnull readonly align 8 dereferenceable(224) %0) local_unnamed_addr #0 align 2 {
  %2 = load volatile ptr, ptr getelementptr inbounds (i8, ptr @_ZN16LogTagSetMappingILN6LogTag4typeE49ELS1_47ELS1_0ELS1_0ELS1_0ELS1_0EE7_tagsetE, i64 64), align 8
  %.not = icmp eq ptr %2, null
  br i1 %.not, label %9, label %3

3:                                                ; preds = %1
  %4 = load ptr, ptr %0, align 8
  %5 = getelementptr inbounds i8, ptr %4, i64 176
  %6 = tail call noundef i32 asm sideeffect "lock cmpxchgl $1,($3)", "={ax},r,{ax},r,~{cc},~{memory},~{dirflag},~{fpsr},~{flags}"(i32 1, i32 0, ptr nonnull %5) #18, !srcloc !26
  %.not.i.i = icmp eq i32 %6, 0
  br i1 %.not.i.i, label %_ZN16ShenandoahLockerD2Ev.exit, label %7

7:                                                ; preds = %3
  %8 = getelementptr inbounds i8, ptr %4, i64 112
  tail call void @_ZN14ShenandoahLock14contended_lockEb(ptr noundef nonnull align 8 dereferenceable(208) %8, i1 noundef zeroext false) #18
  br label %_ZN16ShenandoahLockerD2Ev.exit

_ZN16ShenandoahLockerD2Ev.exit:                   ; preds = %3, %7
  tail call void @_ZN17ShenandoahFreeSet10log_statusEv(ptr noundef nonnull align 8 dereferenceable(224) %0)
  tail call void asm sideeffect "lock; addl $$0,0(%rsp)", "~{cc},~{memory},~{dirflag},~{fpsr},~{flags}"() #18, !srcloc !28
  tail call void asm sideeffect "", "~{memory},~{dirflag},~{fpsr},~{flags}"() #18, !srcloc !18
  store volatile i32 0, ptr %5, align 4
  br label %9

9:                                                ; preds = %_ZN16ShenandoahLockerD2Ev.exit, %1
  ret void
}